; Function Attrs: mustprogress nounwind uwtable
define dso_local void @_ZN24cmInstallExportGeneratorD2Ev(ptr noundef nonnull align 8 dereferenceable(424) %0) unnamed_addr #4 align 2 {
  store ptr getelementptr inbounds ({ [13 x ptr] }, ptr @_ZTV24cmInstallExportGenerator, i64 0, i32 0, i64 2), ptr %0, align 8
  %2 = getelementptr inbounds i8, ptr %0, i64 416
  %3 = load ptr, ptr %2, align 8
  %.not.i = icmp eq ptr %3, null
  br i1 %.not.i, label %_ZNSt10unique_ptrI28cmExportInstallFileGeneratorSt14default_deleteIS0_EED2Ev.exit, label %_ZNKSt14default_deleteI28cmExportInstallFileGeneratorEclEPS0_.exit.i

_ZNKSt14default_deleteI28cmExportInstallFileGeneratorEclEPS0_.exit.i: ; preds = %1
  %4 = load ptr, ptr %3, align 8
  %5 = getelementptr inbounds i8, ptr %4, i64 8
  %6 = load ptr, ptr %5, align 8
  tail call void %6(ptr noundef nonnull align 8 dereferenceable(496) %3) #15
  br label %_ZNSt10unique_ptrI28cmExportInstallFileGeneratorSt14default_deleteIS0_EED2Ev.exit

_ZNSt10unique_ptrI28cmExportInstallFileGeneratorSt14default_deleteIS0_EED2Ev.exit: ; preds = %1, %_ZNKSt14default_deleteI28cmExportInstallFileGeneratorEclEPS0_.exit.i
  store ptr null, ptr %2, align 8
  %7 = getelementptr inbounds i8, ptr %0, i64 384
  tail call void @_ZNSt7__cxx1112basic_stringIcSt11char_traitsIcESaIcEED1Ev(ptr noundef nonnull align 8 dereferenceable(32) %7) #15
  %8 = getelementptr inbounds i8, ptr %0, i64 352
  tail call void @_ZNSt7__cxx1112basic_stringIcSt11char_traitsIcESaIcEED1Ev(ptr noundef nonnull align 8 dereferenceable(32) %8) #15
  %9 = getelementptr inbounds i8, ptr %0, i64 304
  tail call void @_ZNSt7__cxx1112basic_stringIcSt11char_traitsIcESaIcEED1Ev(ptr noundef nonnull align 8 dereferenceable(32) %9) #15
  %10 = getelementptr inbounds i8, ptr %0, i64 272
  tail call void @_ZNSt7__cxx1112basic_stringIcSt11char_traitsIcESaIcEED1Ev(ptr noundef nonnull align 8 dereferenceable(32) %10) #15
  %11 = getelementptr inbounds i8, ptr %0, i64 240
  tail call void @_ZNSt7__cxx1112basic_stringIcSt11char_traitsIcESaIcEED1Ev(ptr noundef nonnull align 8 dereferenceable(32) %11) #15
  %12 = getelementptr inbounds i8, ptr %0, i64 208
  tail call void @_ZNSt7__cxx1112basic_stringIcSt11char_traitsIcESaIcEED1Ev(ptr noundef nonnull align 8 dereferenceable(32) %12) #15
  tail call void @_ZN18cmInstallGeneratorD2Ev(ptr noundef nonnull align 8 dereferenceable(200) %0) #15
  ret void
}